; Function Attrs: nounwind uwtable
define hidden ptr @X509_NAME_delete_entry(ptr noundef captures(address_is_null) %0, i32 noundef %1) local_unnamed_addr #0 {
  %3 = icmp eq ptr %0, null
  %4 = icmp slt i32 %1, 0
  %or.cond = or i1 %3, %4
  br i1 %or.cond, label %.loopexit, label %5

5:                                                ; preds = %2
  %6 = load ptr, ptr %0, align 8, !tbaa !6
  %7 = tail call i64 @sk_num(ptr noundef %6) #7
  %8 = zext nneg i32 %1 to i64
  %.not = icmp ugt i64 %7, %8
  br i1 %.not, label %9, label %.loopexit

9:                                                ; preds = %5
  %10 = load ptr, ptr %0, align 8, !tbaa !6
  %11 = tail call ptr @sk_delete(ptr noundef %10, i64 noundef %8) #7
  %12 = tail call i64 @sk_num(ptr noundef %10) #7
  %13 = trunc i64 %12 to i32
  %14 = getelementptr inbounds nuw i8, ptr %0, i64 8
  store i32 1, ptr %14, align 8, !tbaa !27
  %15 = icmp eq i32 %1, %13
  br i1 %15, label %.loopexit, label %16

16:                                               ; preds = %9
  %.not34 = icmp eq i32 %1, 0
  br i1 %.not34, label %24, label %17

17:                                               ; preds = %16
  %18 = add nsw i32 %1, -1
  %19 = zext nneg i32 %18 to i64
  %20 = tail call ptr @sk_value(ptr noundef %10, i64 noundef %19) #7
  %21 = getelementptr inbounds nuw i8, ptr %20, i64 16
  %22 = load i32, ptr %21, align 8, !tbaa !28
  %23 = add nsw i32 %22, 1
  br label %27

24:                                               ; preds = %16
  %25 = getelementptr inbounds nuw i8, ptr %11, i64 16
  %26 = load i32, ptr %25, align 8, !tbaa !28
  br label %27

27:                                               ; preds = %24, %17
  %.029 = phi i32 [ %23, %17 ], [ %26, %24 ]
  %28 = tail call ptr @sk_value(ptr noundef %10, i64 noundef %8) #7
  %29 = getelementptr inbounds nuw i8, ptr %28, i64 16
  %30 = load i32, ptr %29, align 8, !tbaa !28
  %31 = icmp slt i32 %.029, %30
  %32 = icmp slt i32 %1, %13
  %or.cond36 = and i1 %31, %32
  br i1 %or.cond36, label %.lr.ph, label %.loopexit

.lr.ph:                                           ; preds = %27, %.lr.ph
  %indvars.iv = phi i64 [ %indvars.iv.next, %.lr.ph ], [ %8, %27 ]
  %33 = tail call ptr @sk_value(ptr noundef %10, i64 noundef %indvars.iv) #7
  %34 = getelementptr inbounds nuw i8, ptr %33, i64 16
  %35 = load i32, ptr %34, align 8, !tbaa !28
  %36 = add nsw i32 %35, -1
  store i32 %36, ptr %34, align 8, !tbaa !28
  %indvars.iv.next = add nuw nsw i64 %indvars.iv, 1
  %37 = trunc nuw i64 %indvars.iv.next to i32
  %38 = icmp slt i32 %37, %13
  br i1 %38, label %.lr.ph, label %.loopexit, !llvm.loop !29

.loopexit:                                        ; preds = %.lr.ph, %27, %9, %2, %5
  %.0 = phi ptr [ null, %5 ], [ null, %2 ], [ %11, %9 ], [ %11, %27 ], [ %11, %.lr.ph ]
  ret ptr %.0
}